target datalayout = "e-m:e-p270:32:32-p271:32:32-p272:64:64-i64:64-i128:128-f80:128-n8:16:32:64-S128"
target triple = "x86_64-pc-linux-gnu"

%struct.ssl_ecdh_ctx_st = type { ptr, ptr }

@.str = private unnamed_addr constant [118 x i8] c"generated/home/dtcxzyw/WorkSpace/Projects/compilers/llvm-opt-benchmark/bench/libquic/libquic/boringssl/ssl/ssl_ecdh.c\00", align 1

; Function Attrs: nounwind uwtable
define internal i32 @ssl_x25519_generate_keypair(ptr noundef %0, ptr noundef %1) #0 {
  %3 = alloca i32, align 4
  %4 = alloca ptr, align 8
  %5 = alloca ptr, align 8
  %6 = alloca [32 x i8], align 16
  store ptr %0, ptr %4, align 8, !tbaa !25
  store ptr %1, ptr %5, align 8, !tbaa !33
  %7 = call noalias ptr @malloc(i64 noundef 32) #6
  %8 = load ptr, ptr %4, align 8, !tbaa !25
  %9 = getelementptr inbounds nuw %struct.ssl_ecdh_ctx_st, ptr %8, i32 0, i32 1
  store ptr %7, ptr %9, align 8, !tbaa !30
  %10 = load ptr, ptr %4, align 8, !tbaa !25
  %11 = getelementptr inbounds nuw %struct.ssl_ecdh_ctx_st, ptr %10, i32 0, i32 1
  %12 = load ptr, ptr %11, align 8, !tbaa !30
  %13 = icmp eq ptr %12, null
  br i1 %13, label %14, label %15

14:                                               ; preds = %2
  call void @ERR_put_error(i32 noundef 16, i32 noundef 0, i32 noundef 65, ptr noundef @.str, i32 noundef 169)
  store i32 0, ptr %3, align 4
  br label %23

15:                                               ; preds = %2
  call void @llvm.lifetime.start.p0(i64 32, ptr %6) #5
  %16 = getelementptr inbounds [32 x i8], ptr %6, i64 0, i64 0
  %17 = load ptr, ptr %4, align 8, !tbaa !25
  %18 = getelementptr inbounds nuw %struct.ssl_ecdh_ctx_st, ptr %17, i32 0, i32 1
  %19 = load ptr, ptr %18, align 8, !tbaa !30
  call void @X25519_keypair(ptr noundef %16, ptr noundef %19)
  %20 = load ptr, ptr %5, align 8, !tbaa !33
  %21 = getelementptr inbounds [32 x i8], ptr %6, i64 0, i64 0
  %22 = call i32 @CBB_add_bytes(ptr noundef %20, ptr noundef %21, i64 noundef 32)
  store i32 %22, ptr %3, align 4
  call void @llvm.lifetime.end.p0(i64 32, ptr %6) #5
  br label %23

23:                                               ; preds = %15, %14
  %24 = load i32, ptr %3, align 4
  ret i32 %24
}