; Function Attrs: nounwind uwtable
define internal i32 @ssl_x25519_generate_keypair(ptr noundef writeonly captures(none) initializes((8, 16)) %0, ptr noundef %1) #3 {
  %3 = alloca [32 x i8], align 16
  %4 = tail call noalias dereferenceable_or_null(32) ptr @malloc(i64 noundef 32) #9
  %5 = getelementptr inbounds nuw i8, ptr %0, i64 8
  store ptr %4, ptr %5, align 8, !tbaa !22
  %6 = icmp eq ptr %4, null
  br i1 %6, label %7, label %8

7:                                                ; preds = %2
  tail call void @ERR_put_error(i32 noundef 16, i32 noundef 0, i32 noundef 65, ptr noundef nonnull @.str, i32 noundef 169) #8
  br label %10

8:                                                ; preds = %2
  call void @llvm.lifetime.start.p0(i64 32, ptr nonnull %3) #8
  call void @X25519_keypair(ptr noundef nonnull %3, ptr noundef nonnull %4) #8
  %9 = call i32 @CBB_add_bytes(ptr noundef %1, ptr noundef nonnull %3, i64 noundef 32) #8
  call void @llvm.lifetime.end.p0(i64 32, ptr nonnull %3) #8
  br label %10

10:                                               ; preds = %8, %7
  %.0 = phi i32 [ 0, %7 ], [ %9, %8 ]
  ret i32 %.0
}